target datalayout = "e-m:e-p270:32:32-p271:32:32-p272:64:64-i64:64-i128:128-f80:128-n8:16:32:64-S128"
target triple = "x86_64-pc-linux-gnu"

%struct.jpeg_decompress_struct = type { ptr, ptr, ptr, ptr, i32, i32, ptr, i32, i32, i32, i32, i32, i32, i32, double, i32, i32, i32, i32, i32, i32, i32, i32, i32, i32, i32, i32, i32, i32, i32, i32, i32, i32, ptr, i32, i32, i32, i32, i32, ptr, [4 x ptr], [4 x ptr], [4 x ptr], i32, ptr, i32, i32, [16 x i8], [16 x i8], [16 x i8], i32, i32, i8, i8, i8, i16, i16, i32, i8, i32, ptr, i32, i32, i32, i32, ptr, i32, [4 x ptr], i32, i32, i32, [10 x i32], i32, i32, i32, i32, i32, ptr, ptr, ptr, ptr, ptr, ptr, ptr, ptr, ptr, ptr, ptr }
%struct.gif_dest_struct = type { %struct.djpeg_dest_struct, ptr, i32, i16, i32, i32, i32, i16, i32, i16, i16, i16, i16, ptr, ptr, i32, [256 x i8] }
%struct.djpeg_dest_struct = type { ptr, ptr, ptr, ptr, ptr, ptr, ptr, ptr, i32 }

; Function Attrs: nounwind uwtable
define internal void @clear_hash(ptr noundef %0) #0 {
  %2 = alloca ptr, align 8
  store ptr %0, ptr %2, align 8, !tbaa !43
  %3 = load ptr, ptr %2, align 8, !tbaa !43
  %4 = getelementptr inbounds nuw %struct.gif_dest_struct, ptr %3, i32 0, i32 13
  %5 = load ptr, ptr %4, align 8, !tbaa !62
  call void @llvm.memset.p0.i64(ptr align 2 %5, i8 0, i64 10006, i1 false)
  ret void
}

; Function Attrs: nounwind uwtable
define internal void @clear_block(ptr noundef %0) #0 {
  %2 = alloca ptr, align 8
  store ptr %0, ptr %2, align 8, !tbaa !43
  %3 = load ptr, ptr %2, align 8, !tbaa !43
  call void @clear_hash(ptr noundef %3)
  %4 = load ptr, ptr %2, align 8, !tbaa !43
  %5 = getelementptr inbounds nuw %struct.gif_dest_struct, ptr %4, i32 0, i32 9
  %6 = load i16, ptr %5, align 4, !tbaa !79
  %7 = sext i16 %6 to i32
  %8 = add nsw i32 %7, 2
  %9 = trunc i32 %8 to i16
  %10 = load ptr, ptr %2, align 8, !tbaa !43
  %11 = getelementptr inbounds nuw %struct.gif_dest_struct, ptr %10, i32 0, i32 11
  store i16 %9, ptr %11, align 8, !tbaa !74
  %12 = load ptr, ptr %2, align 8, !tbaa !43
  %13 = load ptr, ptr %2, align 8, !tbaa !43
  %14 = getelementptr inbounds nuw %struct.gif_dest_struct, ptr %13, i32 0, i32 9
  %15 = load i16, ptr %14, align 4, !tbaa !79
  call void @output(ptr noundef %12, i16 noundef signext %15)
  %16 = load ptr, ptr %2, align 8, !tbaa !43
  %17 = getelementptr inbounds nuw %struct.gif_dest_struct, ptr %16, i32 0, i32 4
  %18 = load i32, ptr %17, align 8, !tbaa !85
  %19 = load ptr, ptr %2, align 8, !tbaa !43
  %20 = getelementptr inbounds nuw %struct.gif_dest_struct, ptr %19, i32 0, i32 2
  store i32 %18, ptr %20, align 8, !tbaa !86
  %21 = load ptr, ptr %2, align 8, !tbaa !43
  %22 = getelementptr inbounds nuw %struct.gif_dest_struct, ptr %21, i32 0, i32 2
  %23 = load i32, ptr %22, align 8, !tbaa !86
  %24 = shl i32 1, %23
  %25 = sub nsw i32 %24, 1
  %26 = trunc i32 %25 to i16
  %27 = load ptr, ptr %2, align 8, !tbaa !43
  %28 = getelementptr inbounds nuw %struct.gif_dest_struct, ptr %27, i32 0, i32 3
  store i16 %26, ptr %28, align 4, !tbaa !78
  ret void
}

; Function Attrs: nounwind uwtable
define internal void @put_LZW_pixel_rows(ptr noundef %0, ptr noundef %1, i32 noundef %2) #0 {
  %4 = alloca ptr, align 8
  %5 = alloca ptr, align 8
  %6 = alloca i32, align 4
  %7 = alloca ptr, align 8
  %8 = alloca ptr, align 8
  %9 = alloca i32, align 4
  %10 = alloca i16, align 2
  %11 = alloca i32, align 4
  %12 = alloca i32, align 4
  %13 = alloca i32, align 4
  store ptr %0, ptr %4, align 8, !tbaa !4
  store ptr %1, ptr %5, align 8, !tbaa !65
  store i32 %2, ptr %6, align 4, !tbaa !9
  call void @llvm.lifetime.start.p0(i64 8, ptr %7) #5
  %14 = load ptr, ptr %5, align 8, !tbaa !65
  store ptr %14, ptr %7, align 8, !tbaa !43
  call void @llvm.lifetime.start.p0(i64 8, ptr %8) #5
  call void @llvm.lifetime.start.p0(i64 4, ptr %9) #5
  call void @llvm.lifetime.start.p0(i64 2, ptr %10) #5
  call void @llvm.lifetime.start.p0(i64 4, ptr %11) #5
  call void @llvm.lifetime.start.p0(i64 4, ptr %12) #5
  call void @llvm.lifetime.start.p0(i64 4, ptr %13) #5
  %15 = load ptr, ptr %7, align 8, !tbaa !43
  %16 = getelementptr inbounds nuw %struct.gif_dest_struct, ptr %15, i32 0, i32 0
  %17 = getelementptr inbounds nuw %struct.djpeg_dest_struct, ptr %16, i32 0, i32 5
  %18 = load ptr, ptr %17, align 8, !tbaa !59
  %19 = getelementptr inbounds ptr, ptr %18, i64 0
  %20 = load ptr, ptr %19, align 8, !tbaa !70
  store ptr %20, ptr %8, align 8, !tbaa !70
  %21 = load ptr, ptr %4, align 8, !tbaa !4
  %22 = getelementptr inbounds nuw %struct.jpeg_decompress_struct, ptr %21, i32 0, i32 27
  %23 = load i32, ptr %22, align 8, !tbaa !58
  store i32 %23, ptr %9, align 4, !tbaa !9
  br label %24

24:                                               ; preds = %211, %3
  %25 = load i32, ptr %9, align 4, !tbaa !9
  %26 = icmp ugt i32 %25, 0
  br i1 %26, label %27, label %214

27:                                               ; preds = %24
  %28 = load ptr, ptr %8, align 8, !tbaa !70
  %29 = getelementptr inbounds nuw i8, ptr %28, i32 1
  store ptr %29, ptr %8, align 8, !tbaa !70
  %30 = load i8, ptr %28, align 1, !tbaa !38
  %31 = zext i8 %30 to i16
  store i16 %31, ptr %10, align 2, !tbaa !71
  %32 = load ptr, ptr %7, align 8, !tbaa !43
  %33 = getelementptr inbounds nuw %struct.gif_dest_struct, ptr %32, i32 0, i32 8
  %34 = load i32, ptr %33, align 8, !tbaa !72
  %35 = icmp ne i32 %34, 0
  br i1 %35, label %36, label %42

36:                                               ; preds = %27
  %37 = load i16, ptr %10, align 2, !tbaa !71
  %38 = load ptr, ptr %7, align 8, !tbaa !43
  %39 = getelementptr inbounds nuw %struct.gif_dest_struct, ptr %38, i32 0, i32 7
  store i16 %37, ptr %39, align 4, !tbaa !73
  %40 = load ptr, ptr %7, align 8, !tbaa !43
  %41 = getelementptr inbounds nuw %struct.gif_dest_struct, ptr %40, i32 0, i32 8
  store i32 0, ptr %41, align 8, !tbaa !72
  br label %211

42:                                               ; preds = %27
  %43 = load i16, ptr %10, align 2, !tbaa !71
  %44 = sext i16 %43 to i32
  %45 = shl i32 %44, 4
  %46 = load ptr, ptr %7, align 8, !tbaa !43
  %47 = getelementptr inbounds nuw %struct.gif_dest_struct, ptr %46, i32 0, i32 7
  %48 = load i16, ptr %47, align 4, !tbaa !73
  %49 = sext i16 %48 to i32
  %50 = add nsw i32 %45, %49
  store i32 %50, ptr %11, align 4, !tbaa !9
  %51 = load i32, ptr %11, align 4, !tbaa !9
  %52 = icmp sge i32 %51, 5003
  br i1 %52, label %53, label %56

53:                                               ; preds = %42
  %54 = load i32, ptr %11, align 4, !tbaa !9
  %55 = sub nsw i32 %54, 5003
  store i32 %55, ptr %11, align 4, !tbaa !9
  br label %56

56:                                               ; preds = %53, %42
  %57 = load ptr, ptr %7, align 8, !tbaa !43
  %58 = getelementptr inbounds nuw %struct.gif_dest_struct, ptr %57, i32 0, i32 7
  %59 = load i16, ptr %58, align 4, !tbaa !73
  %60 = sext i16 %59 to i32
  %61 = shl i32 %60, 8
  %62 = load i16, ptr %10, align 2, !tbaa !71
  %63 = sext i16 %62 to i32
  %64 = or i32 %61, %63
  store i32 %64, ptr %13, align 4, !tbaa !9
  %65 = load ptr, ptr %7, align 8, !tbaa !43
  %66 = getelementptr inbounds nuw %struct.gif_dest_struct, ptr %65, i32 0, i32 13
  %67 = load ptr, ptr %66, align 8, !tbaa !62
  %68 = load i32, ptr %11, align 4, !tbaa !9
  %69 = sext i32 %68 to i64
  %70 = getelementptr inbounds i16, ptr %67, i64 %69
  %71 = load i16, ptr %70, align 2, !tbaa !71
  %72 = sext i16 %71 to i32
  %73 = icmp eq i32 %72, 0
  br i1 %73, label %74, label %108

74:                                               ; preds = %56
  %75 = load ptr, ptr %7, align 8, !tbaa !43
  %76 = load ptr, ptr %7, align 8, !tbaa !43
  %77 = getelementptr inbounds nuw %struct.gif_dest_struct, ptr %76, i32 0, i32 7
  %78 = load i16, ptr %77, align 4, !tbaa !73
  call void @output(ptr noundef %75, i16 noundef signext %78)
  %79 = load ptr, ptr %7, align 8, !tbaa !43
  %80 = getelementptr inbounds nuw %struct.gif_dest_struct, ptr %79, i32 0, i32 11
  %81 = load i16, ptr %80, align 8, !tbaa !74
  %82 = sext i16 %81 to i32
  %83 = icmp slt i32 %82, 4096
  br i1 %83, label %84, label %102

84:                                               ; preds = %74
  %85 = load ptr, ptr %7, align 8, !tbaa !43
  %86 = getelementptr inbounds nuw %struct.gif_dest_struct, ptr %85, i32 0, i32 11
  %87 = load i16, ptr %86, align 8, !tbaa !74
  %88 = add i16 %87, 1
  store i16 %88, ptr %86, align 8, !tbaa !74
  %89 = load ptr, ptr %7, align 8, !tbaa !43
  %90 = getelementptr inbounds nuw %struct.gif_dest_struct, ptr %89, i32 0, i32 13
  %91 = load ptr, ptr %90, align 8, !tbaa !62
  %92 = load i32, ptr %11, align 4, !tbaa !9
  %93 = sext i32 %92 to i64
  %94 = getelementptr inbounds i16, ptr %91, i64 %93
  store i16 %87, ptr %94, align 2, !tbaa !71
  %95 = load i32, ptr %13, align 4, !tbaa !9
  %96 = load ptr, ptr %7, align 8, !tbaa !43
  %97 = getelementptr inbounds nuw %struct.gif_dest_struct, ptr %96, i32 0, i32 14
  %98 = load ptr, ptr %97, align 8, !tbaa !64
  %99 = load i32, ptr %11, align 4, !tbaa !9
  %100 = sext i32 %99 to i64
  %101 = getelementptr inbounds i32, ptr %98, i64 %100
  store i32 %95, ptr %101, align 4, !tbaa !9
  br label %104

102:                                              ; preds = %74
  %103 = load ptr, ptr %7, align 8, !tbaa !43
  call void @clear_block(ptr noundef %103)
  br label %104

104:                                              ; preds = %102, %84
  %105 = load i16, ptr %10, align 2, !tbaa !71
  %106 = load ptr, ptr %7, align 8, !tbaa !43
  %107 = getelementptr inbounds nuw %struct.gif_dest_struct, ptr %106, i32 0, i32 7
  store i16 %105, ptr %107, align 4, !tbaa !73
  br label %211

108:                                              ; preds = %56
  %109 = load ptr, ptr %7, align 8, !tbaa !43
  %110 = getelementptr inbounds nuw %struct.gif_dest_struct, ptr %109, i32 0, i32 14
  %111 = load ptr, ptr %110, align 8, !tbaa !64
  %112 = load i32, ptr %11, align 4, !tbaa !9
  %113 = sext i32 %112 to i64
  %114 = getelementptr inbounds i32, ptr %111, i64 %113
  %115 = load i32, ptr %114, align 4, !tbaa !9
  %116 = load i32, ptr %13, align 4, !tbaa !9
  %117 = icmp eq i32 %115, %116
  br i1 %117, label %118, label %128

118:                                              ; preds = %108
  %119 = load ptr, ptr %7, align 8, !tbaa !43
  %120 = getelementptr inbounds nuw %struct.gif_dest_struct, ptr %119, i32 0, i32 13
  %121 = load ptr, ptr %120, align 8, !tbaa !62
  %122 = load i32, ptr %11, align 4, !tbaa !9
  %123 = sext i32 %122 to i64
  %124 = getelementptr inbounds i16, ptr %121, i64 %123
  %125 = load i16, ptr %124, align 2, !tbaa !71
  %126 = load ptr, ptr %7, align 8, !tbaa !43
  %127 = getelementptr inbounds nuw %struct.gif_dest_struct, ptr %126, i32 0, i32 7
  store i16 %125, ptr %127, align 4, !tbaa !73
  br label %211

128:                                              ; preds = %108
  %129 = load i32, ptr %11, align 4, !tbaa !9
  %130 = icmp eq i32 %129, 0
  br i1 %130, label %131, label %132

131:                                              ; preds = %128
  store i32 1, ptr %12, align 4, !tbaa !9
  br label %135

132:                                              ; preds = %128
  %133 = load i32, ptr %11, align 4, !tbaa !9
  %134 = sub nsw i32 5003, %133
  store i32 %134, ptr %12, align 4, !tbaa !9
  br label %135

135:                                              ; preds = %132, %131
  br label %136

136:                                              ; preds = %209, %135
  %137 = load i32, ptr %12, align 4, !tbaa !9
  %138 = load i32, ptr %11, align 4, !tbaa !9
  %139 = sub nsw i32 %138, %137
  store i32 %139, ptr %11, align 4, !tbaa !9
  %140 = load i32, ptr %11, align 4, !tbaa !9
  %141 = icmp slt i32 %140, 0
  br i1 %141, label %142, label %145

142:                                              ; preds = %136
  %143 = load i32, ptr %11, align 4, !tbaa !9
  %144 = add nsw i32 %143, 5003
  store i32 %144, ptr %11, align 4, !tbaa !9
  br label %145

145:                                              ; preds = %142, %136
  %146 = load ptr, ptr %7, align 8, !tbaa !43
  %147 = getelementptr inbounds nuw %struct.gif_dest_struct, ptr %146, i32 0, i32 13
  %148 = load ptr, ptr %147, align 8, !tbaa !62
  %149 = load i32, ptr %11, align 4, !tbaa !9
  %150 = sext i32 %149 to i64
  %151 = getelementptr inbounds i16, ptr %148, i64 %150
  %152 = load i16, ptr %151, align 2, !tbaa !71
  %153 = sext i16 %152 to i32
  %154 = icmp eq i32 %153, 0
  br i1 %154, label %155, label %189

155:                                              ; preds = %145
  %156 = load ptr, ptr %7, align 8, !tbaa !43
  %157 = load ptr, ptr %7, align 8, !tbaa !43
  %158 = getelementptr inbounds nuw %struct.gif_dest_struct, ptr %157, i32 0, i32 7
  %159 = load i16, ptr %158, align 4, !tbaa !73
  call void @output(ptr noundef %156, i16 noundef signext %159)
  %160 = load ptr, ptr %7, align 8, !tbaa !43
  %161 = getelementptr inbounds nuw %struct.gif_dest_struct, ptr %160, i32 0, i32 11
  %162 = load i16, ptr %161, align 8, !tbaa !74
  %163 = sext i16 %162 to i32
  %164 = icmp slt i32 %163, 4096
  br i1 %164, label %165, label %183

165:                                              ; preds = %155
  %166 = load ptr, ptr %7, align 8, !tbaa !43
  %167 = getelementptr inbounds nuw %struct.gif_dest_struct, ptr %166, i32 0, i32 11
  %168 = load i16, ptr %167, align 8, !tbaa !74
  %169 = add i16 %168, 1
  store i16 %169, ptr %167, align 8, !tbaa !74
  %170 = load ptr, ptr %7, align 8, !tbaa !43
  %171 = getelementptr inbounds nuw %struct.gif_dest_struct, ptr %170, i32 0, i32 13
  %172 = load ptr, ptr %171, align 8, !tbaa !62
  %173 = load i32, ptr %11, align 4, !tbaa !9
  %174 = sext i32 %173 to i64
  %175 = getelementptr inbounds i16, ptr %172, i64 %174
  store i16 %168, ptr %175, align 2, !tbaa !71
  %176 = load i32, ptr %13, align 4, !tbaa !9
  %177 = load ptr, ptr %7, align 8, !tbaa !43
  %178 = getelementptr inbounds nuw %struct.gif_dest_struct, ptr %177, i32 0, i32 14
  %179 = load ptr, ptr %178, align 8, !tbaa !64
  %180 = load i32, ptr %11, align 4, !tbaa !9
  %181 = sext i32 %180 to i64
  %182 = getelementptr inbounds i32, ptr %179, i64 %181
  store i32 %176, ptr %182, align 4, !tbaa !9
  br label %185

183:                                              ; preds = %155
  %184 = load ptr, ptr %7, align 8, !tbaa !43
  call void @clear_block(ptr noundef %184)
  br label %185

185:                                              ; preds = %183, %165
  %186 = load i16, ptr %10, align 2, !tbaa !71
  %187 = load ptr, ptr %7, align 8, !tbaa !43
  %188 = getelementptr inbounds nuw %struct.gif_dest_struct, ptr %187, i32 0, i32 7
  store i16 %186, ptr %188, align 4, !tbaa !73
  br label %210

189:                                              ; preds = %145
  %190 = load ptr, ptr %7, align 8, !tbaa !43
  %191 = getelementptr inbounds nuw %struct.gif_dest_struct, ptr %190, i32 0, i32 14
  %192 = load ptr, ptr %191, align 8, !tbaa !64
  %193 = load i32, ptr %11, align 4, !tbaa !9
  %194 = sext i32 %193 to i64
  %195 = getelementptr inbounds i32, ptr %192, i64 %194
  %196 = load i32, ptr %195, align 4, !tbaa !9
  %197 = load i32, ptr %13, align 4, !tbaa !9
  %198 = icmp eq i32 %196, %197
  br i1 %198, label %199, label %209

199:                                              ; preds = %189
  %200 = load ptr, ptr %7, align 8, !tbaa !43
  %201 = getelementptr inbounds nuw %struct.gif_dest_struct, ptr %200, i32 0, i32 13
  %202 = load ptr, ptr %201, align 8, !tbaa !62
  %203 = load i32, ptr %11, align 4, !tbaa !9
  %204 = sext i32 %203 to i64
  %205 = getelementptr inbounds i16, ptr %202, i64 %204
  %206 = load i16, ptr %205, align 2, !tbaa !71
  %207 = load ptr, ptr %7, align 8, !tbaa !43
  %208 = getelementptr inbounds nuw %struct.gif_dest_struct, ptr %207, i32 0, i32 7
  store i16 %206, ptr %208, align 4, !tbaa !73
  br label %210

209:                                              ; preds = %189
  br label %136

210:                                              ; preds = %199, %185
  br label %211

211:                                              ; preds = %210, %118, %104, %36
  %212 = load i32, ptr %9, align 4, !tbaa !9
  %213 = add i32 %212, -1
  store i32 %213, ptr %9, align 4, !tbaa !9
  br label %24, !llvm.loop !75

214:                                              ; preds = %24
  call void @llvm.lifetime.end.p0(i64 4, ptr %13) #5
  call void @llvm.lifetime.end.p0(i64 4, ptr %12) #5
  call void @llvm.lifetime.end.p0(i64 4, ptr %11) #5
  call void @llvm.lifetime.end.p0(i64 2, ptr %10) #5
  call void @llvm.lifetime.end.p0(i64 4, ptr %9) #5
  call void @llvm.lifetime.end.p0(i64 8, ptr %8) #5
  call void @llvm.lifetime.end.p0(i64 8, ptr %7) #5
  ret void
}