; Function Attrs: nounwind uwtable
define internal void @put_LZW_pixel_rows(ptr noundef readonly captures(none) %0, ptr noundef captures(none) %1, i32 %2) #0 {
  %4 = getelementptr inbounds nuw i8, ptr %0, i64 136
  %5 = load i32, ptr %4, align 8, !tbaa !55
  %.not76 = icmp eq i32 %5, 0
  br i1 %.not76, label %._crit_edge, label %.lr.ph

.lr.ph:                                           ; preds = %3
  %6 = getelementptr inbounds nuw i8, ptr %1, i64 40
  %7 = load ptr, ptr %6, align 8, !tbaa !56
  %8 = load ptr, ptr %7, align 8, !tbaa !71
  %9 = getelementptr inbounds nuw i8, ptr %1, i64 104
  %10 = getelementptr inbounds nuw i8, ptr %1, i64 100
  %11 = getelementptr inbounds nuw i8, ptr %1, i64 120
  %12 = getelementptr inbounds nuw i8, ptr %1, i64 128
  %13 = getelementptr inbounds nuw i8, ptr %1, i64 112
  %14 = getelementptr inbounds nuw i8, ptr %1, i64 108
  %15 = getelementptr inbounds nuw i8, ptr %1, i64 88
  %16 = getelementptr inbounds nuw i8, ptr %1, i64 80
  %17 = getelementptr inbounds nuw i8, ptr %1, i64 84
  br label %18

18:                                               ; preds = %.lr.ph, %92
  %.078 = phi ptr [ %8, %.lr.ph ], [ %19, %92 ]
  %.06377 = phi i32 [ %5, %.lr.ph ], [ %93, %92 ]
  %19 = getelementptr inbounds nuw i8, ptr %.078, i64 1
  %20 = load i8, ptr %.078, align 1, !tbaa !35
  %21 = zext i8 %20 to i16
  %22 = load i32, ptr %9, align 8, !tbaa !64
  %.not69 = icmp eq i32 %22, 0
  br i1 %.not69, label %24, label %23

23:                                               ; preds = %18
  store i16 %21, ptr %10, align 4, !tbaa !65
  store i32 0, ptr %9, align 8, !tbaa !64
  br label %92

24:                                               ; preds = %18
  %25 = zext i8 %20 to i32
  %26 = shl nuw nsw i32 %25, 4
  %27 = load i16, ptr %10, align 4, !tbaa !65
  %28 = sext i16 %27 to i32
  %29 = add nsw i32 %26, %28
  %30 = icmp sgt i32 %29, 5002
  %31 = add nsw i32 %29, -5003
  %spec.select = select i1 %30, i32 %31, i32 %29
  %32 = shl nsw i32 %28, 8
  %33 = or disjoint i32 %32, %25
  %34 = load ptr, ptr %11, align 8, !tbaa !59
  %35 = sext i32 %spec.select to i64
  %36 = getelementptr inbounds i16, ptr %34, i64 %35
  %37 = load i16, ptr %36, align 2, !tbaa !72
  %38 = icmp eq i16 %37, 0
  br i1 %38, label %39, label %55

39:                                               ; preds = %24
  tail call fastcc void @output(ptr noundef nonnull %1, i16 noundef signext %27)
  %40 = load i16, ptr %13, align 8, !tbaa !73
  %41 = icmp slt i16 %40, 4096
  br i1 %41, label %42, label %48

42:                                               ; preds = %39
  %43 = add nsw i16 %40, 1
  store i16 %43, ptr %13, align 8, !tbaa !73
  %44 = load ptr, ptr %11, align 8, !tbaa !59
  %45 = getelementptr inbounds i16, ptr %44, i64 %35
  store i16 %40, ptr %45, align 2, !tbaa !72
  %46 = load ptr, ptr %12, align 8, !tbaa !61
  %47 = getelementptr inbounds i32, ptr %46, i64 %35
  store i32 %33, ptr %47, align 4, !tbaa !74
  br label %54

48:                                               ; preds = %39
  %.val.i = load ptr, ptr %11, align 8, !tbaa !59
  tail call void @llvm.memset.p0.i64(ptr noundef nonnull align 2 dereferenceable(10006) %.val.i, i8 0, i64 10006, i1 false)
  %49 = load i16, ptr %14, align 4, !tbaa !75
  %50 = add i16 %49, 2
  store i16 %50, ptr %13, align 8, !tbaa !73
  tail call fastcc void @output(ptr noundef nonnull %1, i16 noundef signext %49)
  %51 = load i32, ptr %15, align 8, !tbaa !76
  store i32 %51, ptr %16, align 8, !tbaa !77
  %notmask.i = shl nsw i32 -1, %51
  %52 = trunc i32 %notmask.i to i16
  %53 = xor i16 %52, -1
  store i16 %53, ptr %17, align 4, !tbaa !78
  br label %54

54:                                               ; preds = %48, %42
  store i16 %21, ptr %10, align 4, !tbaa !65
  br label %92

55:                                               ; preds = %24
  %56 = load ptr, ptr %12, align 8, !tbaa !61
  %57 = getelementptr inbounds i32, ptr %56, i64 %35
  %58 = load i32, ptr %57, align 4, !tbaa !74
  %59 = icmp eq i32 %58, %33
  br i1 %59, label %60, label %61

60:                                               ; preds = %55
  store i16 %37, ptr %10, align 4, !tbaa !65
  br label %92

61:                                               ; preds = %55
  %62 = icmp eq i32 %spec.select, 0
  %.neg = add nsw i32 %spec.select, -5003
  %.061.neg = select i1 %62, i32 -1, i32 %.neg
  br label %63

63:                                               ; preds = %87, %61
  %.1 = phi i32 [ %spec.select, %61 ], [ %spec.select70, %87 ]
  %64 = add i32 %.1, %.061.neg
  %65 = icmp slt i32 %64, 0
  %66 = add nsw i32 %64, 5003
  %spec.select70 = select i1 %65, i32 %66, i32 %64
  %67 = sext i32 %spec.select70 to i64
  %68 = getelementptr inbounds i16, ptr %34, i64 %67
  %69 = load i16, ptr %68, align 2, !tbaa !72
  %70 = icmp eq i16 %69, 0
  br i1 %70, label %71, label %87

71:                                               ; preds = %63
  tail call fastcc void @output(ptr noundef %1, i16 noundef signext %27)
  %72 = load i16, ptr %13, align 8, !tbaa !73
  %73 = icmp slt i16 %72, 4096
  br i1 %73, label %74, label %80

74:                                               ; preds = %71
  %75 = add nsw i16 %72, 1
  store i16 %75, ptr %13, align 8, !tbaa !73
  %76 = load ptr, ptr %11, align 8, !tbaa !59
  %77 = getelementptr inbounds i16, ptr %76, i64 %67
  store i16 %72, ptr %77, align 2, !tbaa !72
  %78 = load ptr, ptr %12, align 8, !tbaa !61
  %79 = getelementptr inbounds i32, ptr %78, i64 %67
  store i32 %33, ptr %79, align 4, !tbaa !74
  br label %86

80:                                               ; preds = %71
  %.val.i71 = load ptr, ptr %11, align 8, !tbaa !59
  tail call void @llvm.memset.p0.i64(ptr noundef nonnull align 2 dereferenceable(10006) %.val.i71, i8 0, i64 10006, i1 false)
  %81 = load i16, ptr %14, align 4, !tbaa !75
  %82 = add i16 %81, 2
  store i16 %82, ptr %13, align 8, !tbaa !73
  tail call fastcc void @output(ptr noundef nonnull %1, i16 noundef signext %81)
  %83 = load i32, ptr %15, align 8, !tbaa !76
  store i32 %83, ptr %16, align 8, !tbaa !77
  %notmask.i72 = shl nsw i32 -1, %83
  %84 = trunc i32 %notmask.i72 to i16
  %85 = xor i16 %84, -1
  store i16 %85, ptr %17, align 4, !tbaa !78
  br label %86

86:                                               ; preds = %80, %74
  store i16 %21, ptr %10, align 4, !tbaa !65
  br label %92

87:                                               ; preds = %63
  %88 = getelementptr inbounds i32, ptr %56, i64 %67
  %89 = load i32, ptr %88, align 4, !tbaa !74
  %90 = icmp eq i32 %89, %33
  br i1 %90, label %91, label %63

91:                                               ; preds = %87
  store i16 %69, ptr %10, align 4, !tbaa !65
  br label %92

92:                                               ; preds = %86, %91, %60, %54, %23
  %93 = add i32 %.06377, -1
  %.not = icmp eq i32 %93, 0
  br i1 %.not, label %._crit_edge, label %18, !llvm.loop !79

._crit_edge:                                      ; preds = %92, %3
  ret void
}